target datalayout = "e-m:e-p270:32:32-p271:32:32-p272:64:64-i64:64-i128:128-f80:128-n8:16:32:64-S128"
target triple = "x86_64-pc-linux-gnu"

%struct.Extra_ImageTree_t_ = type { ptr, ptr, ptr, i32, i32, i32, i32 }
%struct.Extra_ImageNode_t_ = type { ptr, ptr, ptr, ptr, ptr, ptr }

; Function Attrs: nounwind uwtable
define internal void @Extra_bddImageCompute_rec(ptr noundef %0, ptr noundef %1) #0 {
  %3 = alloca ptr, align 8
  %4 = alloca ptr, align 8
  %5 = alloca ptr, align 8
  %6 = alloca ptr, align 8
  %7 = alloca i32, align 4
  %8 = alloca i32, align 4
  store ptr %0, ptr %3, align 8, !tbaa !35
  store ptr %1, ptr %4, align 8, !tbaa !37
  call void @llvm.lifetime.start.p0(i64 8, ptr %5) #6
  %9 = load ptr, ptr %4, align 8, !tbaa !37
  %10 = getelementptr inbounds nuw %struct.Extra_ImageNode_t_, ptr %9, i32 0, i32 0
  %11 = load ptr, ptr %10, align 8, !tbaa !74
  store ptr %11, ptr %5, align 8, !tbaa !3
  call void @llvm.lifetime.start.p0(i64 8, ptr %6) #6
  call void @llvm.lifetime.start.p0(i64 4, ptr %7) #6
  %12 = load ptr, ptr %4, align 8, !tbaa !37
  %13 = getelementptr inbounds nuw %struct.Extra_ImageNode_t_, ptr %12, i32 0, i32 3
  %14 = load ptr, ptr %13, align 8, !tbaa !86
  %15 = icmp eq ptr %14, null
  br i1 %15, label %16, label %38

16:                                               ; preds = %2
  %17 = load ptr, ptr %4, align 8, !tbaa !37
  %18 = getelementptr inbounds nuw %struct.Extra_ImageNode_t_, ptr %17, i32 0, i32 1
  %19 = load ptr, ptr %18, align 8, !tbaa !78
  %20 = icmp ne ptr %19, null
  br i1 %20, label %21, label %37

21:                                               ; preds = %16
  %22 = load ptr, ptr %5, align 8, !tbaa !3
  %23 = load ptr, ptr %4, align 8, !tbaa !37
  %24 = getelementptr inbounds nuw %struct.Extra_ImageNode_t_, ptr %23, i32 0, i32 2
  %25 = load ptr, ptr %24, align 8, !tbaa !80
  store ptr %25, ptr %6, align 8, !tbaa !8
  %26 = load ptr, ptr %4, align 8, !tbaa !37
  %27 = getelementptr inbounds nuw %struct.Extra_ImageNode_t_, ptr %26, i32 0, i32 1
  %28 = load ptr, ptr %27, align 8, !tbaa !78
  %29 = call ptr @Cudd_bddExistAbstract(ptr noundef %22, ptr noundef %25, ptr noundef %28)
  %30 = load ptr, ptr %4, align 8, !tbaa !37
  %31 = getelementptr inbounds nuw %struct.Extra_ImageNode_t_, ptr %30, i32 0, i32 2
  store ptr %29, ptr %31, align 8, !tbaa !80
  %32 = load ptr, ptr %4, align 8, !tbaa !37
  %33 = getelementptr inbounds nuw %struct.Extra_ImageNode_t_, ptr %32, i32 0, i32 2
  %34 = load ptr, ptr %33, align 8, !tbaa !80
  call void @Cudd_Ref(ptr noundef %34)
  %35 = load ptr, ptr %5, align 8, !tbaa !3
  %36 = load ptr, ptr %6, align 8, !tbaa !8
  call void @Cudd_RecursiveDeref(ptr noundef %35, ptr noundef %36)
  br label %37

37:                                               ; preds = %21, %16
  store i32 1, ptr %8, align 4
  br label %132

38:                                               ; preds = %2
  %39 = load ptr, ptr %4, align 8, !tbaa !37
  %40 = getelementptr inbounds nuw %struct.Extra_ImageNode_t_, ptr %39, i32 0, i32 3
  %41 = load ptr, ptr %40, align 8, !tbaa !86
  %42 = icmp ne ptr %41, null
  br i1 %42, label %43, label %48

43:                                               ; preds = %38
  %44 = load ptr, ptr %3, align 8, !tbaa !35
  %45 = load ptr, ptr %4, align 8, !tbaa !37
  %46 = getelementptr inbounds nuw %struct.Extra_ImageNode_t_, ptr %45, i32 0, i32 3
  %47 = load ptr, ptr %46, align 8, !tbaa !86
  call void @Extra_bddImageCompute_rec(ptr noundef %44, ptr noundef %47)
  br label %48

48:                                               ; preds = %43, %38
  %49 = load ptr, ptr %4, align 8, !tbaa !37
  %50 = getelementptr inbounds nuw %struct.Extra_ImageNode_t_, ptr %49, i32 0, i32 4
  %51 = load ptr, ptr %50, align 8, !tbaa !87
  %52 = icmp ne ptr %51, null
  br i1 %52, label %53, label %58

53:                                               ; preds = %48
  %54 = load ptr, ptr %3, align 8, !tbaa !35
  %55 = load ptr, ptr %4, align 8, !tbaa !37
  %56 = getelementptr inbounds nuw %struct.Extra_ImageNode_t_, ptr %55, i32 0, i32 4
  %57 = load ptr, ptr %56, align 8, !tbaa !87
  call void @Extra_bddImageCompute_rec(ptr noundef %54, ptr noundef %57)
  br label %58

58:                                               ; preds = %53, %48
  %59 = load ptr, ptr %4, align 8, !tbaa !37
  %60 = getelementptr inbounds nuw %struct.Extra_ImageNode_t_, ptr %59, i32 0, i32 2
  %61 = load ptr, ptr %60, align 8, !tbaa !80
  %62 = icmp ne ptr %61, null
  br i1 %62, label %63, label %68

63:                                               ; preds = %58
  %64 = load ptr, ptr %5, align 8, !tbaa !3
  %65 = load ptr, ptr %4, align 8, !tbaa !37
  %66 = getelementptr inbounds nuw %struct.Extra_ImageNode_t_, ptr %65, i32 0, i32 2
  %67 = load ptr, ptr %66, align 8, !tbaa !80
  call void @Cudd_RecursiveDeref(ptr noundef %64, ptr noundef %67)
  br label %68

68:                                               ; preds = %63, %58
  %69 = load ptr, ptr %4, align 8, !tbaa !37
  %70 = getelementptr inbounds nuw %struct.Extra_ImageNode_t_, ptr %69, i32 0, i32 2
  store ptr null, ptr %70, align 8, !tbaa !80
  %71 = load ptr, ptr %4, align 8, !tbaa !37
  %72 = getelementptr inbounds nuw %struct.Extra_ImageNode_t_, ptr %71, i32 0, i32 1
  %73 = load ptr, ptr %72, align 8, !tbaa !78
  %74 = icmp ne ptr %73, null
  br i1 %74, label %75, label %93

75:                                               ; preds = %68
  %76 = load ptr, ptr %5, align 8, !tbaa !3
  %77 = load ptr, ptr %4, align 8, !tbaa !37
  %78 = getelementptr inbounds nuw %struct.Extra_ImageNode_t_, ptr %77, i32 0, i32 3
  %79 = load ptr, ptr %78, align 8, !tbaa !86
  %80 = getelementptr inbounds nuw %struct.Extra_ImageNode_t_, ptr %79, i32 0, i32 2
  %81 = load ptr, ptr %80, align 8, !tbaa !80
  %82 = load ptr, ptr %4, align 8, !tbaa !37
  %83 = getelementptr inbounds nuw %struct.Extra_ImageNode_t_, ptr %82, i32 0, i32 4
  %84 = load ptr, ptr %83, align 8, !tbaa !87
  %85 = getelementptr inbounds nuw %struct.Extra_ImageNode_t_, ptr %84, i32 0, i32 2
  %86 = load ptr, ptr %85, align 8, !tbaa !80
  %87 = load ptr, ptr %4, align 8, !tbaa !37
  %88 = getelementptr inbounds nuw %struct.Extra_ImageNode_t_, ptr %87, i32 0, i32 1
  %89 = load ptr, ptr %88, align 8, !tbaa !78
  %90 = call ptr @Cudd_bddAndAbstract(ptr noundef %76, ptr noundef %81, ptr noundef %86, ptr noundef %89)
  %91 = load ptr, ptr %4, align 8, !tbaa !37
  %92 = getelementptr inbounds nuw %struct.Extra_ImageNode_t_, ptr %91, i32 0, i32 2
  store ptr %90, ptr %92, align 8, !tbaa !80
  br label %108

93:                                               ; preds = %68
  %94 = load ptr, ptr %5, align 8, !tbaa !3
  %95 = load ptr, ptr %4, align 8, !tbaa !37
  %96 = getelementptr inbounds nuw %struct.Extra_ImageNode_t_, ptr %95, i32 0, i32 3
  %97 = load ptr, ptr %96, align 8, !tbaa !86
  %98 = getelementptr inbounds nuw %struct.Extra_ImageNode_t_, ptr %97, i32 0, i32 2
  %99 = load ptr, ptr %98, align 8, !tbaa !80
  %100 = load ptr, ptr %4, align 8, !tbaa !37
  %101 = getelementptr inbounds nuw %struct.Extra_ImageNode_t_, ptr %100, i32 0, i32 4
  %102 = load ptr, ptr %101, align 8, !tbaa !87
  %103 = getelementptr inbounds nuw %struct.Extra_ImageNode_t_, ptr %102, i32 0, i32 2
  %104 = load ptr, ptr %103, align 8, !tbaa !80
  %105 = call ptr @Cudd_bddAnd(ptr noundef %94, ptr noundef %99, ptr noundef %104)
  %106 = load ptr, ptr %4, align 8, !tbaa !37
  %107 = getelementptr inbounds nuw %struct.Extra_ImageNode_t_, ptr %106, i32 0, i32 2
  store ptr %105, ptr %107, align 8, !tbaa !80
  br label %108

108:                                              ; preds = %93, %75
  %109 = load ptr, ptr %4, align 8, !tbaa !37
  %110 = getelementptr inbounds nuw %struct.Extra_ImageNode_t_, ptr %109, i32 0, i32 2
  %111 = load ptr, ptr %110, align 8, !tbaa !80
  call void @Cudd_Ref(ptr noundef %111)
  %112 = load ptr, ptr %3, align 8, !tbaa !35
  %113 = getelementptr inbounds nuw %struct.Extra_ImageTree_t_, ptr %112, i32 0, i32 3
  %114 = load i32, ptr %113, align 8, !tbaa !41
  %115 = icmp ne i32 %114, 0
  br i1 %115, label %116, label %131

116:                                              ; preds = %108
  %117 = load ptr, ptr %4, align 8, !tbaa !37
  %118 = getelementptr inbounds nuw %struct.Extra_ImageNode_t_, ptr %117, i32 0, i32 2
  %119 = load ptr, ptr %118, align 8, !tbaa !80
  %120 = call i32 @Cudd_DagSize(ptr noundef %119)
  store i32 %120, ptr %7, align 4, !tbaa !10
  %121 = load ptr, ptr %3, align 8, !tbaa !35
  %122 = getelementptr inbounds nuw %struct.Extra_ImageTree_t_, ptr %121, i32 0, i32 4
  %123 = load i32, ptr %122, align 4, !tbaa !89
  %124 = load i32, ptr %7, align 4, !tbaa !10
  %125 = icmp slt i32 %123, %124
  br i1 %125, label %126, label %130

126:                                              ; preds = %116
  %127 = load i32, ptr %7, align 4, !tbaa !10
  %128 = load ptr, ptr %3, align 8, !tbaa !35
  %129 = getelementptr inbounds nuw %struct.Extra_ImageTree_t_, ptr %128, i32 0, i32 4
  store i32 %127, ptr %129, align 4, !tbaa !89
  br label %130

130:                                              ; preds = %126, %116
  br label %131

131:                                              ; preds = %130, %108
  store i32 0, ptr %8, align 4
  br label %132

132:                                              ; preds = %131, %37
  call void @llvm.lifetime.end.p0(i64 4, ptr %7) #6
  call void @llvm.lifetime.end.p0(i64 8, ptr %6) #6
  call void @llvm.lifetime.end.p0(i64 8, ptr %5) #6
  %133 = load i32, ptr %8, align 4
  switch i32 %133, label %135 [
    i32 0, label %134
    i32 1, label %134
  ]

134:                                              ; preds = %132, %132
  ret void

135:                                              ; preds = %132
  unreachable
}