; Function Attrs: nounwind uwtable
define internal fastcc void @Extra_bddImageCompute_rec(ptr noundef %0, ptr noundef captures(none) %1) unnamed_addr #0 {
  %3 = load ptr, ptr %1, align 8, !tbaa !53
  %4 = getelementptr inbounds nuw i8, ptr %1, i64 24
  %5 = load ptr, ptr %4, align 8, !tbaa !74
  %6 = icmp eq ptr %5, null
  br i1 %6, label %7, label %14

7:                                                ; preds = %2
  %8 = getelementptr inbounds nuw i8, ptr %1, i64 8
  %9 = load ptr, ptr %8, align 8, !tbaa !58
  %.not44 = icmp eq ptr %9, null
  br i1 %.not44, label %45, label %10

10:                                               ; preds = %7
  %11 = getelementptr inbounds nuw i8, ptr %1, i64 16
  %12 = load ptr, ptr %11, align 8, !tbaa !60
  %13 = tail call ptr @Cudd_bddExistAbstract(ptr noundef %3, ptr noundef %12, ptr noundef nonnull %9) #10
  store ptr %13, ptr %11, align 8, !tbaa !60
  tail call void @Cudd_Ref(ptr noundef %13) #10
  tail call void @Cudd_RecursiveDeref(ptr noundef %3, ptr noundef %12) #10
  br label %45

14:                                               ; preds = %2
  tail call fastcc void @Extra_bddImageCompute_rec(ptr noundef %0, ptr noundef nonnull %5)
  %15 = getelementptr inbounds nuw i8, ptr %1, i64 32
  %16 = load ptr, ptr %15, align 8, !tbaa !75
  %.not = icmp eq ptr %16, null
  br i1 %.not, label %18, label %17

17:                                               ; preds = %14
  tail call fastcc void @Extra_bddImageCompute_rec(ptr noundef %0, ptr noundef nonnull %16)
  br label %18

18:                                               ; preds = %17, %14
  %19 = getelementptr inbounds nuw i8, ptr %1, i64 16
  %20 = load ptr, ptr %19, align 8, !tbaa !60
  %.not41 = icmp eq ptr %20, null
  br i1 %.not41, label %22, label %21

21:                                               ; preds = %18
  tail call void @Cudd_RecursiveDeref(ptr noundef %3, ptr noundef nonnull %20) #10
  br label %22

22:                                               ; preds = %21, %18
  store ptr null, ptr %19, align 8, !tbaa !60
  %23 = getelementptr inbounds nuw i8, ptr %1, i64 8
  %24 = load ptr, ptr %23, align 8, !tbaa !58
  %.not42 = icmp eq ptr %24, null
  %25 = load ptr, ptr %4, align 8, !tbaa !74
  %26 = getelementptr inbounds nuw i8, ptr %25, i64 16
  %27 = load ptr, ptr %26, align 8, !tbaa !60
  %28 = load ptr, ptr %15, align 8, !tbaa !75
  %29 = getelementptr inbounds nuw i8, ptr %28, i64 16
  %30 = load ptr, ptr %29, align 8, !tbaa !60
  br i1 %.not42, label %33, label %31

31:                                               ; preds = %22
  %32 = tail call ptr @Cudd_bddAndAbstract(ptr noundef %3, ptr noundef %27, ptr noundef %30, ptr noundef nonnull %24) #10
  br label %35

33:                                               ; preds = %22
  %34 = tail call ptr @Cudd_bddAnd(ptr noundef %3, ptr noundef %27, ptr noundef %30) #10
  br label %35

35:                                               ; preds = %33, %31
  %storemerge = phi ptr [ %34, %33 ], [ %32, %31 ]
  store ptr %storemerge, ptr %19, align 8, !tbaa !60
  tail call void @Cudd_Ref(ptr noundef %storemerge) #10
  %36 = getelementptr inbounds nuw i8, ptr %0, i64 24
  %37 = load i32, ptr %36, align 8, !tbaa !64
  %.not43 = icmp eq i32 %37, 0
  br i1 %.not43, label %45, label %38

38:                                               ; preds = %35
  %39 = load ptr, ptr %19, align 8, !tbaa !60
  %40 = tail call i32 @Cudd_DagSize(ptr noundef %39) #10
  %41 = getelementptr inbounds nuw i8, ptr %0, i64 28
  %42 = load i32, ptr %41, align 4, !tbaa !77
  %43 = icmp slt i32 %42, %40
  br i1 %43, label %44, label %45

44:                                               ; preds = %38
  store i32 %40, ptr %41, align 4, !tbaa !77
  br label %45

45:                                               ; preds = %35, %44, %38, %7, %10
  ret void
}